target datalayout = "e-m:e-p270:32:32-p271:32:32-p272:64:64-i64:64-i128:128-f80:128-n8:16:32:64-S128"
target triple = "x86_64-unknown-linux-gnu"

%"class.std::__cxx11::basic_string" = type { %"struct.std::__cxx11::basic_string<char>::_Alloc_hider", i64, %union.anon }
%"struct.std::__cxx11::basic_string<char>::_Alloc_hider" = type { ptr }
%union.anon = type { i64, [8 x i8] }
%"class.YAML::detail::node_data" = type { i8, %"struct.YAML::Mark", i32, %"class.std::__cxx11::basic_string", i32, %"class.std::__cxx11::basic_string", %"class.std::vector", i64, %"class.std::vector.3", %"class.std::__cxx11::list" }
%"struct.YAML::Mark" = type { i32, i32, i32 }
%"class.std::vector" = type { %"struct.std::_Vector_base" }
%"struct.std::_Vector_base" = type { %"struct.std::_Vector_base<YAML::detail::node *, std::allocator<YAML::detail::node *>>::_Vector_impl" }
%"struct.std::_Vector_base<YAML::detail::node *, std::allocator<YAML::detail::node *>>::_Vector_impl" = type { %"struct.std::_Vector_base<YAML::detail::node *, std::allocator<YAML::detail::node *>>::_Vector_impl_data" }
%"struct.std::_Vector_base<YAML::detail::node *, std::allocator<YAML::detail::node *>>::_Vector_impl_data" = type { ptr, ptr, ptr }
%"class.std::vector.3" = type { %"struct.std::_Vector_base.4" }
%"struct.std::_Vector_base.4" = type { %"struct.std::_Vector_base<std::pair<YAML::detail::node *, YAML::detail::node *>, std::allocator<std::pair<YAML::detail::node *, YAML::detail::node *>>>::_Vector_impl" }
%"struct.std::_Vector_base<std::pair<YAML::detail::node *, YAML::detail::node *>, std::allocator<std::pair<YAML::detail::node *, YAML::detail::node *>>>::_Vector_impl" = type { %"struct.std::_Vector_base<std::pair<YAML::detail::node *, YAML::detail::node *>, std::allocator<std::pair<YAML::detail::node *, YAML::detail::node *>>>::_Vector_impl_data" }
%"struct.std::_Vector_base<std::pair<YAML::detail::node *, YAML::detail::node *>, std::allocator<std::pair<YAML::detail::node *, YAML::detail::node *>>>::_Vector_impl_data" = type { ptr, ptr, ptr }
%"class.std::__cxx11::list" = type { %"class.std::__cxx11::_List_base" }
%"class.std::__cxx11::_List_base" = type { %"struct.std::__cxx11::_List_base<std::pair<YAML::detail::node *, YAML::detail::node *>, std::allocator<std::pair<YAML::detail::node *, YAML::detail::node *>>>::_List_impl" }
%"struct.std::__cxx11::_List_base<std::pair<YAML::detail::node *, YAML::detail::node *>, std::allocator<std::pair<YAML::detail::node *, YAML::detail::node *>>>::_List_impl" = type { %"struct.std::__detail::_List_node_header" }
%"struct.std::__detail::_List_node_header" = type { %"struct.std::__detail::_List_node_base", i64 }
%"struct.std::__detail::_List_node_base" = type { ptr, ptr }

; Function Attrs: mustprogress uwtable
define void @_ZN4YAML6detail9node_data10set_scalarERKNSt7__cxx1112basic_stringIcSt11char_traitsIcESaIcEEE(ptr noundef nonnull align 8 dereferenceable(176) %this, ptr noundef nonnull align 8 dereferenceable(32) %scalar) #3 align 2 {
entry:
  %this.addr = alloca ptr, align 8
  %scalar.addr = alloca ptr, align 8
  store ptr %this, ptr %this.addr, align 8
  store ptr %scalar, ptr %scalar.addr, align 8
  %this1 = load ptr, ptr %this.addr, align 8
  %m_isDefined = getelementptr inbounds %"class.YAML::detail::node_data", ptr %this1, i32 0, i32 0
  store i8 1, ptr %m_isDefined, align 8
  %m_type = getelementptr inbounds %"class.YAML::detail::node_data", ptr %this1, i32 0, i32 2
  store i32 2, ptr %m_type, align 8
  %0 = load ptr, ptr %scalar.addr, align 8
  %m_scalar = getelementptr inbounds %"class.YAML::detail::node_data", ptr %this1, i32 0, i32 5
  %call = call noundef nonnull align 8 dereferenceable(32) ptr @_ZNSt7__cxx1112basic_stringIcSt11char_traitsIcESaIcEEaSERKS4_(ptr noundef nonnull align 8 dereferenceable(32) %m_scalar, ptr noundef nonnull align 8 dereferenceable(32) %0)
  ret void
}