; Function Attrs: mustprogress uwtable
define void @_ZN4YAML6detail9node_data10set_scalarERKNSt7__cxx1112basic_stringIcSt11char_traitsIcESaIcEEE(ptr noundef nonnull align 8 dereferenceable(176) %this, ptr noundef nonnull align 8 dereferenceable(32) %scalar) local_unnamed_addr #6 align 2 {
entry:
  store i8 1, ptr %this, align 8
  %m_type = getelementptr inbounds i8, ptr %this, i64 16
  store i32 2, ptr %m_type, align 8
  %m_scalar = getelementptr inbounds i8, ptr %this, i64 64
  %call = tail call noundef nonnull align 8 dereferenceable(32) ptr @_ZNSt7__cxx1112basic_stringIcSt11char_traitsIcESaIcEEaSERKS4_(ptr noundef nonnull align 8 dereferenceable(32) %m_scalar, ptr noundef nonnull align 8 dereferenceable(32) %scalar)
  ret void
}